; Function Attrs: nounwind uwtable
define internal range(i32 0, 2) i32 @db_setupvalue(ptr noundef %0) #0 {
  tail call void @luaL_checkany(ptr noundef %0, i32 noundef 3) #8
  %2 = tail call i64 @luaL_checkinteger(ptr noundef %0, i32 noundef 2) #8
  tail call void @luaL_checktype(ptr noundef %0, i32 noundef 1, i32 noundef 6) #8
  %3 = tail call i32 @lua_iscfunction(ptr noundef %0, i32 noundef 1) #8
  %.not.i = icmp eq i32 %3, 0
  br i1 %.not.i, label %4, label %auxupvalue.exit

4:                                                ; preds = %1
  %5 = trunc i64 %2 to i32
  %6 = tail call ptr @lua_setupvalue(ptr noundef %0, i32 noundef 1, i32 noundef %5) #8
  %7 = icmp eq ptr %6, null
  br i1 %7, label %auxupvalue.exit, label %8

8:                                                ; preds = %4
  tail call void @lua_pushstring(ptr noundef %0, ptr noundef nonnull %6) #8
  tail call void @lua_insert(ptr noundef %0, i32 noundef -1) #8
  br label %auxupvalue.exit

auxupvalue.exit:                                  ; preds = %1, %4, %8
  %.0.i = phi i32 [ 1, %8 ], [ 0, %1 ], [ 0, %4 ]
  ret i32 %.0.i
}